target datalayout = "e-m:e-p270:32:32-p271:32:32-p272:64:64-i64:64-i128:128-f80:128-n8:16:32:64-S128"
target triple = "x86_64-pc-linux-gnu"

%"class.cv::Size_" = type { i32, i32 }
%"class.cv::Complex.6" = type { double, double }

; Function Attrs: inlinehint mustprogress nounwind uwtable
define linkonce_odr hidden void @_ZN2cv7ComplexIdEC2Edd(ptr noundef nonnull align 8 dereferenceable(16) %0, double noundef %1, double noundef %2) unnamed_addr #7 comdat align 2 {
  %4 = alloca ptr, align 8
  %5 = alloca double, align 8
  %6 = alloca double, align 8
  store ptr %0, ptr %4, align 8, !tbaa !501
  store double %1, ptr %5, align 8, !tbaa !21
  store double %2, ptr %6, align 8, !tbaa !21
  %7 = load ptr, ptr %4, align 8
  %8 = getelementptr inbounds nuw %"class.cv::Complex.6", ptr %7, i32 0, i32 0
  %9 = load double, ptr %5, align 8, !tbaa !21
  store double %9, ptr %8, align 8, !tbaa !615
  %10 = getelementptr inbounds nuw %"class.cv::Complex.6", ptr %7, i32 0, i32 1
  %11 = load double, ptr %6, align 8, !tbaa !21
  store double %11, ptr %10, align 8, !tbaa !617
  ret void
}

; Function Attrs: inlinehint mustprogress uwtable
define internal { double, double } @_ZN2cvplIdEENS_7ComplexIT_EERKS3_S5_(ptr noundef nonnull align 8 dereferenceable(16) %0, ptr noundef nonnull align 8 dereferenceable(16) %1) #6 {
  %3 = alloca %"class.cv::Complex.6", align 8
  %4 = alloca ptr, align 8
  %5 = alloca ptr, align 8
  store ptr %0, ptr %4, align 8, !tbaa !501
  store ptr %1, ptr %5, align 8, !tbaa !501
  %6 = load ptr, ptr %4, align 8, !tbaa !501
  %7 = getelementptr inbounds nuw %"class.cv::Complex.6", ptr %6, i32 0, i32 0
  %8 = load double, ptr %7, align 8, !tbaa !615
  %9 = load ptr, ptr %5, align 8, !tbaa !501
  %10 = getelementptr inbounds nuw %"class.cv::Complex.6", ptr %9, i32 0, i32 0
  %11 = load double, ptr %10, align 8, !tbaa !615
  %12 = fadd double %8, %11
  %13 = load ptr, ptr %4, align 8, !tbaa !501
  %14 = getelementptr inbounds nuw %"class.cv::Complex.6", ptr %13, i32 0, i32 1
  %15 = load double, ptr %14, align 8, !tbaa !617
  %16 = load ptr, ptr %5, align 8, !tbaa !501
  %17 = getelementptr inbounds nuw %"class.cv::Complex.6", ptr %16, i32 0, i32 1
  %18 = load double, ptr %17, align 8, !tbaa !617
  %19 = fadd double %15, %18
  call void @_ZN2cv7ComplexIdEC2Edd(ptr noundef nonnull align 8 dereferenceable(16) %3, double noundef %12, double noundef %19)
  %20 = load { double, double }, ptr %3, align 8
  ret { double, double } %20
}

; Function Attrs: inlinehint mustprogress uwtable
define internal { double, double } @_ZN2cvmlIdEENS_7ComplexIT_EERKS3_S2_(ptr noundef nonnull align 8 dereferenceable(16) %0, double noundef %1) #6 {
  %3 = alloca %"class.cv::Complex.6", align 8
  %4 = alloca ptr, align 8
  %5 = alloca double, align 8
  store ptr %0, ptr %4, align 8, !tbaa !501
  store double %1, ptr %5, align 8, !tbaa !21
  %6 = load ptr, ptr %4, align 8, !tbaa !501
  %7 = getelementptr inbounds nuw %"class.cv::Complex.6", ptr %6, i32 0, i32 0
  %8 = load double, ptr %7, align 8, !tbaa !615
  %9 = load double, ptr %5, align 8, !tbaa !21
  %10 = fmul double %8, %9
  %11 = load ptr, ptr %4, align 8, !tbaa !501
  %12 = getelementptr inbounds nuw %"class.cv::Complex.6", ptr %11, i32 0, i32 1
  %13 = load double, ptr %12, align 8, !tbaa !617
  %14 = load double, ptr %5, align 8, !tbaa !21
  %15 = fmul double %13, %14
  call void @_ZN2cv7ComplexIdEC2Edd(ptr noundef nonnull align 8 dereferenceable(16) %3, double noundef %10, double noundef %15)
  %16 = load { double, double }, ptr %3, align 8
  ret { double, double } %16
}

; Function Attrs: inlinehint mustprogress uwtable
define internal { double, double } @_ZN2cvmlIdEENS_7ComplexIT_EES2_RKS3_(double noundef %0, ptr noundef nonnull align 8 dereferenceable(16) %1) #6 {
  %3 = alloca %"class.cv::Complex.6", align 8
  %4 = alloca double, align 8
  %5 = alloca ptr, align 8
  store double %0, ptr %4, align 8, !tbaa !21
  store ptr %1, ptr %5, align 8, !tbaa !501
  %6 = load ptr, ptr %5, align 8, !tbaa !501
  %7 = getelementptr inbounds nuw %"class.cv::Complex.6", ptr %6, i32 0, i32 0
  %8 = load double, ptr %7, align 8, !tbaa !615
  %9 = load double, ptr %4, align 8, !tbaa !21
  %10 = fmul double %8, %9
  %11 = load ptr, ptr %5, align 8, !tbaa !501
  %12 = getelementptr inbounds nuw %"class.cv::Complex.6", ptr %11, i32 0, i32 1
  %13 = load double, ptr %12, align 8, !tbaa !617
  %14 = load double, ptr %4, align 8, !tbaa !21
  %15 = fmul double %13, %14
  call void @_ZN2cv7ComplexIdEC2Edd(ptr noundef nonnull align 8 dereferenceable(16) %3, double noundef %10, double noundef %15)
  %16 = load { double, double }, ptr %3, align 8
  ret { double, double } %16
}

; Function Attrs: mustprogress uwtable
define internal void @_ZN2cv12cpu_baselineL9GEMMStoreINS_7ComplexIdEES3_EEvPKT_mPKT0_mPS4_mNS_5Size_IiEEddi(ptr noundef %0, i64 noundef %1, ptr noundef %2, i64 noundef %3, ptr noundef %4, i64 noundef %5, i64 %6, double noundef %7, double noundef %8, i32 noundef %9) #4 {
  %11 = alloca %"class.cv::Size_", align 4
  %12 = alloca ptr, align 8
  %13 = alloca i64, align 8
  %14 = alloca ptr, align 8
  %15 = alloca i64, align 8
  %16 = alloca ptr, align 8
  %17 = alloca i64, align 8
  %18 = alloca double, align 8
  %19 = alloca double, align 8
  %20 = alloca i32, align 4
  %21 = alloca ptr, align 8
  %22 = alloca i32, align 4
  %23 = alloca i64, align 8
  %24 = alloca i64, align 8
  %25 = alloca %"class.cv::Complex.6", align 8
  %26 = alloca %"class.cv::Complex.6", align 8
  %27 = alloca %"class.cv::Complex.6", align 8
  %28 = alloca %"class.cv::Complex.6", align 8
  %29 = alloca %"class.cv::Complex.6", align 8
  store i64 %6, ptr %11, align 4
  store ptr %0, ptr %12, align 8, !tbaa !501
  store i64 %1, ptr %13, align 8, !tbaa !8
  store ptr %2, ptr %14, align 8, !tbaa !501
  store i64 %3, ptr %15, align 8, !tbaa !8
  store ptr %4, ptr %16, align 8, !tbaa !501
  store i64 %5, ptr %17, align 8, !tbaa !8
  store double %7, ptr %18, align 8, !tbaa !21
  store double %8, ptr %19, align 8, !tbaa !21
  store i32 %9, ptr %20, align 4, !tbaa !12
  call void @llvm.lifetime.start.p0(i64 8, ptr %21) #3
  %30 = load ptr, ptr %12, align 8, !tbaa !501
  store ptr %30, ptr %21, align 8, !tbaa !501
  call void @llvm.lifetime.start.p0(i64 4, ptr %22) #3
  call void @llvm.lifetime.start.p0(i64 8, ptr %23) #3
  call void @llvm.lifetime.start.p0(i64 8, ptr %24) #3
  %31 = load i64, ptr %13, align 8, !tbaa !8
  %32 = udiv i64 %31, 16
  store i64 %32, ptr %13, align 8, !tbaa !8
  %33 = load i64, ptr %15, align 8, !tbaa !8
  %34 = udiv i64 %33, 16
  store i64 %34, ptr %15, align 8, !tbaa !8
  %35 = load i64, ptr %17, align 8, !tbaa !8
  %36 = udiv i64 %35, 16
  store i64 %36, ptr %17, align 8, !tbaa !8
  %37 = load ptr, ptr %12, align 8, !tbaa !501
  %38 = icmp ne ptr %37, null
  br i1 %38, label %40, label %39

39:                                               ; preds = %10
  store i64 0, ptr %24, align 8, !tbaa !8
  store i64 0, ptr %23, align 8, !tbaa !8
  br label %49

40:                                               ; preds = %10
  %41 = load i32, ptr %20, align 4, !tbaa !12
  %42 = and i32 %41, 4
  %43 = icmp ne i32 %42, 0
  br i1 %43, label %46, label %44

44:                                               ; preds = %40
  %45 = load i64, ptr %13, align 8, !tbaa !8
  store i64 %45, ptr %23, align 8, !tbaa !8
  store i64 1, ptr %24, align 8, !tbaa !8
  br label %48

46:                                               ; preds = %40
  store i64 1, ptr %23, align 8, !tbaa !8
  %47 = load i64, ptr %13, align 8, !tbaa !8
  store i64 %47, ptr %24, align 8, !tbaa !8
  br label %48

48:                                               ; preds = %46, %44
  br label %49

49:                                               ; preds = %48, %39
  br label %50

50:                                               ; preds = %126, %49
  %51 = getelementptr inbounds nuw %"class.cv::Size_", ptr %11, i32 0, i32 1
  %52 = load i32, ptr %51, align 4, !tbaa !41
  %53 = add nsw i32 %52, -1
  store i32 %53, ptr %51, align 4, !tbaa !41
  %54 = icmp ne i32 %52, 0
  br i1 %54, label %55, label %136

55:                                               ; preds = %50
  %56 = load ptr, ptr %21, align 8, !tbaa !501
  %57 = icmp ne ptr %56, null
  br i1 %57, label %58, label %100

58:                                               ; preds = %55
  %59 = load ptr, ptr %21, align 8, !tbaa !501
  store ptr %59, ptr %12, align 8, !tbaa !501
  store i32 0, ptr %22, align 4, !tbaa !12
  br label %60

60:                                               ; preds = %93, %58
  %61 = load i32, ptr %22, align 4, !tbaa !12
  %62 = getelementptr inbounds nuw %"class.cv::Size_", ptr %11, i32 0, i32 0
  %63 = load i32, ptr %62, align 4, !tbaa !39
  %64 = icmp slt i32 %61, %63
  br i1 %64, label %65, label %99

65:                                               ; preds = %60
  call void @llvm.lifetime.start.p0(i64 16, ptr %25) #3
  %66 = load double, ptr %18, align 8, !tbaa !21
  %67 = load ptr, ptr %14, align 8, !tbaa !501
  %68 = load i32, ptr %22, align 4, !tbaa !12
  %69 = sext i32 %68 to i64
  %70 = getelementptr inbounds %"class.cv::Complex.6", ptr %67, i64 %69
  %71 = call { double, double } @_ZN2cvmlIdEENS_7ComplexIT_EES2_RKS3_(double noundef %66, ptr noundef nonnull align 8 dereferenceable(16) %70)
  %72 = getelementptr inbounds nuw { double, double }, ptr %25, i32 0, i32 0
  %73 = extractvalue { double, double } %71, 0
  store double %73, ptr %72, align 8
  %74 = getelementptr inbounds nuw { double, double }, ptr %25, i32 0, i32 1
  %75 = extractvalue { double, double } %71, 1
  store double %75, ptr %74, align 8
  call void @llvm.lifetime.start.p0(i64 16, ptr %26) #3
  call void @llvm.lifetime.start.p0(i64 16, ptr %27) #3
  call void @llvm.lifetime.start.p0(i64 16, ptr %28) #3
  %76 = load ptr, ptr %12, align 8, !tbaa !501
  %77 = getelementptr inbounds %"class.cv::Complex.6", ptr %76, i64 0
  call void @llvm.memcpy.p0.p0.i64(ptr align 8 %28, ptr align 8 %77, i64 16, i1 false), !tbaa.struct !594
  %78 = load double, ptr %19, align 8, !tbaa !21
  %79 = call { double, double } @_ZN2cvmlIdEENS_7ComplexIT_EERKS3_S2_(ptr noundef nonnull align 8 dereferenceable(16) %28, double noundef %78)
  %80 = getelementptr inbounds nuw { double, double }, ptr %27, i32 0, i32 0
  %81 = extractvalue { double, double } %79, 0
  store double %81, ptr %80, align 8
  %82 = getelementptr inbounds nuw { double, double }, ptr %27, i32 0, i32 1
  %83 = extractvalue { double, double } %79, 1
  store double %83, ptr %82, align 8
  %84 = call { double, double } @_ZN2cvplIdEENS_7ComplexIT_EERKS3_S5_(ptr noundef nonnull align 8 dereferenceable(16) %25, ptr noundef nonnull align 8 dereferenceable(16) %27)
  %85 = getelementptr inbounds nuw { double, double }, ptr %26, i32 0, i32 0
  %86 = extractvalue { double, double } %84, 0
  store double %86, ptr %85, align 8
  %87 = getelementptr inbounds nuw { double, double }, ptr %26, i32 0, i32 1
  %88 = extractvalue { double, double } %84, 1
  store double %88, ptr %87, align 8
  %89 = load ptr, ptr %16, align 8, !tbaa !501
  %90 = load i32, ptr %22, align 4, !tbaa !12
  %91 = sext i32 %90 to i64
  %92 = getelementptr inbounds %"class.cv::Complex.6", ptr %89, i64 %91
  call void @llvm.memcpy.p0.p0.i64(ptr align 8 %92, ptr align 8 %26, i64 16, i1 false), !tbaa.struct !594
  call void @llvm.lifetime.end.p0(i64 16, ptr %28) #3
  call void @llvm.lifetime.end.p0(i64 16, ptr %27) #3
  call void @llvm.lifetime.end.p0(i64 16, ptr %26) #3
  call void @llvm.lifetime.end.p0(i64 16, ptr %25) #3
  br label %93

93:                                               ; preds = %65
  %94 = load i32, ptr %22, align 4, !tbaa !12
  %95 = add nsw i32 %94, 1
  store i32 %95, ptr %22, align 4, !tbaa !12
  %96 = load i64, ptr %24, align 8, !tbaa !8
  %97 = load ptr, ptr %12, align 8, !tbaa !501
  %98 = getelementptr inbounds nuw %"class.cv::Complex.6", ptr %97, i64 %96
  store ptr %98, ptr %12, align 8, !tbaa !501
  br label %60, !llvm.loop !673

99:                                               ; preds = %60
  br label %125

100:                                              ; preds = %55
  store i32 0, ptr %22, align 4, !tbaa !12
  br label %101

101:                                              ; preds = %121, %100
  %102 = load i32, ptr %22, align 4, !tbaa !12
  %103 = getelementptr inbounds nuw %"class.cv::Size_", ptr %11, i32 0, i32 0
  %104 = load i32, ptr %103, align 4, !tbaa !39
  %105 = icmp slt i32 %102, %104
  br i1 %105, label %106, label %124

106:                                              ; preds = %101
  call void @llvm.lifetime.start.p0(i64 16, ptr %29) #3
  %107 = load double, ptr %18, align 8, !tbaa !21
  %108 = load ptr, ptr %14, align 8, !tbaa !501
  %109 = load i32, ptr %22, align 4, !tbaa !12
  %110 = sext i32 %109 to i64
  %111 = getelementptr inbounds %"class.cv::Complex.6", ptr %108, i64 %110
  %112 = call { double, double } @_ZN2cvmlIdEENS_7ComplexIT_EES2_RKS3_(double noundef %107, ptr noundef nonnull align 8 dereferenceable(16) %111)
  %113 = getelementptr inbounds nuw { double, double }, ptr %29, i32 0, i32 0
  %114 = extractvalue { double, double } %112, 0
  store double %114, ptr %113, align 8
  %115 = getelementptr inbounds nuw { double, double }, ptr %29, i32 0, i32 1
  %116 = extractvalue { double, double } %112, 1
  store double %116, ptr %115, align 8
  %117 = load ptr, ptr %16, align 8, !tbaa !501
  %118 = load i32, ptr %22, align 4, !tbaa !12
  %119 = sext i32 %118 to i64
  %120 = getelementptr inbounds %"class.cv::Complex.6", ptr %117, i64 %119
  call void @llvm.memcpy.p0.p0.i64(ptr align 8 %120, ptr align 8 %29, i64 16, i1 false), !tbaa.struct !594
  call void @llvm.lifetime.end.p0(i64 16, ptr %29) #3
  br label %121

121:                                              ; preds = %106
  %122 = load i32, ptr %22, align 4, !tbaa !12
  %123 = add nsw i32 %122, 1
  store i32 %123, ptr %22, align 4, !tbaa !12
  br label %101, !llvm.loop !674

124:                                              ; preds = %101
  br label %125

125:                                              ; preds = %124, %99
  br label %126

126:                                              ; preds = %125
  %127 = load i64, ptr %23, align 8, !tbaa !8
  %128 = load ptr, ptr %21, align 8, !tbaa !501
  %129 = getelementptr inbounds nuw %"class.cv::Complex.6", ptr %128, i64 %127
  store ptr %129, ptr %21, align 8, !tbaa !501
  %130 = load i64, ptr %15, align 8, !tbaa !8
  %131 = load ptr, ptr %14, align 8, !tbaa !501
  %132 = getelementptr inbounds nuw %"class.cv::Complex.6", ptr %131, i64 %130
  store ptr %132, ptr %14, align 8, !tbaa !501
  %133 = load i64, ptr %17, align 8, !tbaa !8
  %134 = load ptr, ptr %16, align 8, !tbaa !501
  %135 = getelementptr inbounds nuw %"class.cv::Complex.6", ptr %134, i64 %133
  store ptr %135, ptr %16, align 8, !tbaa !501
  br label %50, !llvm.loop !675

136:                                              ; preds = %50
  call void @llvm.lifetime.end.p0(i64 8, ptr %24) #3
  call void @llvm.lifetime.end.p0(i64 8, ptr %23) #3
  call void @llvm.lifetime.end.p0(i64 4, ptr %22) #3
  call void @llvm.lifetime.end.p0(i64 8, ptr %21) #3
  ret void
}

; Function Attrs: mustprogress uwtable
define internal void @_ZN2cv12cpu_baselineL14GEMMStore_64fcEPKNS_7ComplexIdEEmS4_mPS2_mNS_5Size_IiEEddi(ptr noundef %0, i64 noundef %1, ptr noundef %2, i64 noundef %3, ptr noundef %4, i64 noundef %5, i64 %6, double noundef %7, double noundef %8, i32 noundef %9) #4 {
  %11 = alloca %"class.cv::Size_", align 4
  %12 = alloca ptr, align 8
  %13 = alloca i64, align 8
  %14 = alloca ptr, align 8
  %15 = alloca i64, align 8
  %16 = alloca ptr, align 8
  %17 = alloca i64, align 8
  %18 = alloca double, align 8
  %19 = alloca double, align 8
  %20 = alloca i32, align 4
  %21 = alloca %"class.cv::Size_", align 4
  store i64 %6, ptr %11, align 4
  store ptr %0, ptr %12, align 8, !tbaa !501
  store i64 %1, ptr %13, align 8, !tbaa !8
  store ptr %2, ptr %14, align 8, !tbaa !501
  store i64 %3, ptr %15, align 8, !tbaa !8
  store ptr %4, ptr %16, align 8, !tbaa !501
  store i64 %5, ptr %17, align 8, !tbaa !8
  store double %7, ptr %18, align 8, !tbaa !21
  store double %8, ptr %19, align 8, !tbaa !21
  store i32 %9, ptr %20, align 4, !tbaa !12
  %22 = load ptr, ptr %12, align 8, !tbaa !501
  %23 = load i64, ptr %13, align 8, !tbaa !8
  %24 = load ptr, ptr %14, align 8, !tbaa !501
  %25 = load i64, ptr %15, align 8, !tbaa !8
  %26 = load ptr, ptr %16, align 8, !tbaa !501
  %27 = load i64, ptr %17, align 8, !tbaa !8
  call void @llvm.memcpy.p0.p0.i64(ptr align 4 %21, ptr align 4 %11, i64 8, i1 false), !tbaa.struct !292
  %28 = load double, ptr %18, align 8, !tbaa !21
  %29 = load double, ptr %19, align 8, !tbaa !21
  %30 = load i32, ptr %20, align 4, !tbaa !12
  %31 = load i64, ptr %21, align 4
  call void @_ZN2cv12cpu_baselineL9GEMMStoreINS_7ComplexIdEES3_EEvPKT_mPKT0_mPS4_mNS_5Size_IiEEddi(ptr noundef %22, i64 noundef %23, ptr noundef %24, i64 noundef %25, ptr noundef %26, i64 noundef %27, i64 %31, double noundef %28, double noundef %29, i32 noundef %30)
  ret void
}