; Function Attrs: mustprogress nofree norecurse nosync nounwind memory(argmem: readwrite) uwtable
define internal void @_ZN2cv12cpu_baselineL14GEMMStore_64fcEPKNS_7ComplexIdEEmS4_mPS2_mNS_5Size_IiEEddi(ptr noundef readonly %0, i64 noundef %1, ptr noundef readonly captures(none) %2, i64 noundef %3, ptr noundef writeonly captures(none) %4, i64 noundef %5, i64 %6, double noundef %7, double noundef %8, i32 noundef %9) unnamed_addr #9 {
  %.fr.i = freeze i64 %6
  %11 = lshr i64 %1, 4
  %12 = lshr i64 %3, 4
  %13 = lshr i64 %5, 4
  %.not.i = icmp eq ptr %0, null
  %14 = and i32 %9, 4
  %.not43.i = icmp eq i32 %14, 0
  %..i = select i1 %.not43.i, i64 %11, i64 1
  %.46.i = select i1 %.not43.i, i64 1, i64 %11
  %.039.i = select i1 %.not.i, i64 0, i64 %..i
  %.038.i = select i1 %.not.i, i64 0, i64 %.46.i
  %.not4472.i = icmp ugt i64 %.fr.i, 4294967295
  %.sroa.035.0.extract.trunc.i = trunc i64 %.fr.i to i32
  %15 = icmp sgt i32 %.sroa.035.0.extract.trunc.i, 0
  %or.cond.i = and i1 %.not4472.i, %15
  br i1 %or.cond.i, label %.lr.ph79.split.us.split.us.preheader.i, label %_ZN2cv12cpu_baselineL9GEMMStoreINS_7ComplexIdEES3_EEvPKT_mPKT0_mPS4_mNS_5Size_IiEEddi.exit

.lr.ph79.split.us.split.us.preheader.i:           ; preds = %10
  %.sroa.3.0.extract.shift.i = lshr i64 %.fr.i, 32
  %.sroa.3.0.extract.trunc.i = trunc nuw i64 %.sroa.3.0.extract.shift.i to i32
  %wide.trip.count109.i = and i64 %.fr.i, 2147483647
  br label %.lr.ph79.split.us.split.us.i

.lr.ph79.split.us.split.us.i:                     ; preds = %..loopexit67_crit_edge.us.us.i, %.lr.ph79.split.us.split.us.preheader.i
  %.in.i = phi i32 [ %16, %..loopexit67_crit_edge.us.us.i ], [ %.sroa.3.0.extract.trunc.i, %.lr.ph79.split.us.split.us.preheader.i ]
  %.03777.us.us.i = phi ptr [ %28, %..loopexit67_crit_edge.us.us.i ], [ %2, %.lr.ph79.split.us.split.us.preheader.i ]
  %.04175.us.us.i = phi ptr [ %27, %..loopexit67_crit_edge.us.us.i ], [ %0, %.lr.ph79.split.us.split.us.preheader.i ]
  %.04273.us.us.i = phi ptr [ %29, %..loopexit67_crit_edge.us.us.i ], [ %4, %.lr.ph79.split.us.split.us.preheader.i ]
  %16 = add nsw i32 %.in.i, -1
  %.not45.us.us.i = icmp eq ptr %.04175.us.us.i, null
  br i1 %.not45.us.us.i, label %.preheader.us.us.i, label %.preheader66.us.us.i

.preheader66.us.us.i:                             ; preds = %.lr.ph79.split.us.split.us.i, %.preheader66.us.us.i
  %indvars.iv106.i = phi i64 [ %indvars.iv.next107.i, %.preheader66.us.us.i ], [ 0, %.lr.ph79.split.us.split.us.i ]
  %.069.us.us.i = phi ptr [ %26, %.preheader66.us.us.i ], [ %.04175.us.us.i, %.lr.ph79.split.us.split.us.i ]
  %17 = getelementptr inbounds nuw %"class.cv::Complex.6", ptr %.03777.us.us.i, i64 %indvars.iv106.i
  %.val48.us.us.i = load double, ptr %17, align 8, !tbaa !649
  %18 = getelementptr i8, ptr %17, i64 8
  %.val49.us.us.i = load double, ptr %18, align 8, !tbaa !651
  %19 = fmul double %7, %.val48.us.us.i
  %20 = fmul double %7, %.val49.us.us.i
  %.sroa.0.0.copyload.us.us.i = load double, ptr %.069.us.us.i, align 8, !tbaa !45
  %.sroa.4.0..0.sroa_idx.us.us.i = getelementptr inbounds nuw i8, ptr %.069.us.us.i, i64 8
  %.sroa.4.0.copyload.us.us.i = load double, ptr %.sroa.4.0..0.sroa_idx.us.us.i, align 8, !tbaa !45
  %21 = fmul double %8, %.sroa.0.0.copyload.us.us.i
  %22 = fmul double %8, %.sroa.4.0.copyload.us.us.i
  %23 = fadd double %19, %21
  %24 = fadd double %20, %22
  %25 = getelementptr inbounds nuw %"class.cv::Complex.6", ptr %.04273.us.us.i, i64 %indvars.iv106.i
  store double %23, ptr %25, align 8, !tbaa !45
  %.sroa.42.0..sroa_idx.us.us.i = getelementptr inbounds nuw i8, ptr %25, i64 8
  store double %24, ptr %.sroa.42.0..sroa_idx.us.us.i, align 8, !tbaa !45
  %indvars.iv.next107.i = add nuw nsw i64 %indvars.iv106.i, 1
  %26 = getelementptr inbounds nuw %"class.cv::Complex.6", ptr %.069.us.us.i, i64 %.038.i
  %exitcond110.not.i = icmp eq i64 %indvars.iv.next107.i, %wide.trip.count109.i
  br i1 %exitcond110.not.i, label %..loopexit67_crit_edge.us.us.i, label %.preheader66.us.us.i, !llvm.loop !704

..loopexit67_crit_edge.us.us.i:                   ; preds = %.preheader66.us.us.i, %.preheader.us.us.i
  %27 = getelementptr inbounds nuw %"class.cv::Complex.6", ptr %.04175.us.us.i, i64 %.039.i
  %28 = getelementptr inbounds nuw %"class.cv::Complex.6", ptr %.03777.us.us.i, i64 %12
  %29 = getelementptr inbounds nuw %"class.cv::Complex.6", ptr %.04273.us.us.i, i64 %13
  %.not44.us.us.i = icmp eq i32 %16, 0
  br i1 %.not44.us.us.i, label %_ZN2cv12cpu_baselineL9GEMMStoreINS_7ComplexIdEES3_EEvPKT_mPKT0_mPS4_mNS_5Size_IiEEddi.exit, label %.lr.ph79.split.us.split.us.i, !llvm.loop !705

.preheader.us.us.i:                               ; preds = %.lr.ph79.split.us.split.us.i, %.preheader.us.us.i
  %indvars.iv111.i = phi i64 [ %indvars.iv.next112.i, %.preheader.us.us.i ], [ 0, %.lr.ph79.split.us.split.us.i ]
  %30 = getelementptr inbounds nuw %"class.cv::Complex.6", ptr %.03777.us.us.i, i64 %indvars.iv111.i
  %.val.us.us.i = load double, ptr %30, align 8, !tbaa !649
  %31 = getelementptr i8, ptr %30, i64 8
  %.val47.us.us.i = load double, ptr %31, align 8, !tbaa !651
  %32 = fmul double %7, %.val.us.us.i
  %33 = fmul double %7, %.val47.us.us.i
  %34 = getelementptr inbounds nuw %"class.cv::Complex.6", ptr %.04273.us.us.i, i64 %indvars.iv111.i
  store double %32, ptr %34, align 8, !tbaa !45
  %.sroa.4.0..sroa_idx.us.us.i = getelementptr inbounds nuw i8, ptr %34, i64 8
  store double %33, ptr %.sroa.4.0..sroa_idx.us.us.i, align 8, !tbaa !45
  %indvars.iv.next112.i = add nuw nsw i64 %indvars.iv111.i, 1
  %exitcond115.not.i = icmp eq i64 %indvars.iv.next112.i, %wide.trip.count109.i
  br i1 %exitcond115.not.i, label %..loopexit67_crit_edge.us.us.i, label %.preheader.us.us.i, !llvm.loop !706

_ZN2cv12cpu_baselineL9GEMMStoreINS_7ComplexIdEES3_EEvPKT_mPKT0_mPS4_mNS_5Size_IiEEddi.exit: ; preds = %..loopexit67_crit_edge.us.us.i, %10
  ret void
}